target datalayout = "e-m:e-p270:32:32-p271:32:32-p272:64:64-i64:64-i128:128-f80:128-n8:16:32:64-S128"
target triple = "x86_64-pc-linux-gnu"

%struct.df_history_t = type { i32, i8, ptr, ptr, ptr, float, ptr, ptr, ptr, ptr, ptr, ptr, ptr, ptr, ptr, ptr }

; Function Attrs: mustprogress uwtable
define void @_Z20dd_distribute_dfhistP12gmx_domdec_tP12df_history_t(ptr noundef %0, ptr noundef %1) #0 {
  %3 = alloca ptr, align 8
  %4 = alloca ptr, align 8
  %5 = alloca i32, align 4
  %6 = alloca i32, align 4
  store ptr %0, ptr %3, align 8, !tbaa !4
  store ptr %1, ptr %4, align 8, !tbaa !9
  %7 = load ptr, ptr %4, align 8, !tbaa !9
  %8 = icmp eq ptr %7, null
  br i1 %8, label %9, label %10

9:                                                ; preds = %2
  br label %166

10:                                               ; preds = %2
  %11 = load ptr, ptr %3, align 8, !tbaa !4
  %12 = load ptr, ptr %4, align 8, !tbaa !9
  %13 = getelementptr inbounds nuw %struct.df_history_t, ptr %12, i32 0, i32 1
  call void @_Z8dd_bcastPK12gmx_domdec_tiPv(ptr noundef %11, i32 noundef 4, ptr noundef %13)
  %14 = load ptr, ptr %3, align 8, !tbaa !4
  %15 = load ptr, ptr %4, align 8, !tbaa !9
  %16 = getelementptr inbounds nuw %struct.df_history_t, ptr %15, i32 0, i32 0
  call void @_Z8dd_bcastPK12gmx_domdec_tiPv(ptr noundef %14, i32 noundef 4, ptr noundef %16)
  %17 = load ptr, ptr %3, align 8, !tbaa !4
  %18 = load ptr, ptr %4, align 8, !tbaa !9
  %19 = getelementptr inbounds nuw %struct.df_history_t, ptr %18, i32 0, i32 5
  call void @_Z8dd_bcastPK12gmx_domdec_tiPv(ptr noundef %17, i32 noundef 4, ptr noundef %19)
  %20 = load ptr, ptr %4, align 8, !tbaa !9
  %21 = getelementptr inbounds nuw %struct.df_history_t, ptr %20, i32 0, i32 0
  %22 = load i32, ptr %21, align 8, !tbaa !11
  %23 = icmp sgt i32 %22, 0
  br i1 %23, label %24, label %166

24:                                               ; preds = %10
  call void @llvm.lifetime.start.p0(i64 4, ptr %5) #17
  %25 = load ptr, ptr %4, align 8, !tbaa !9
  %26 = getelementptr inbounds nuw %struct.df_history_t, ptr %25, i32 0, i32 0
  %27 = load i32, ptr %26, align 8, !tbaa !11
  store i32 %27, ptr %5, align 4, !tbaa !20
  %28 = load ptr, ptr %3, align 8, !tbaa !4
  %29 = load i32, ptr %5, align 4, !tbaa !20
  %30 = sext i32 %29 to i64
  %31 = mul i64 4, %30
  %32 = trunc i64 %31 to i32
  %33 = load ptr, ptr %4, align 8, !tbaa !9
  %34 = getelementptr inbounds nuw %struct.df_history_t, ptr %33, i32 0, i32 2
  %35 = load ptr, ptr %34, align 8, !tbaa !21
  call void @_Z8dd_bcastPK12gmx_domdec_tiPv(ptr noundef %28, i32 noundef %32, ptr noundef %35)
  %36 = load ptr, ptr %3, align 8, !tbaa !4
  %37 = load i32, ptr %5, align 4, !tbaa !20
  %38 = sext i32 %37 to i64
  %39 = mul i64 4, %38
  %40 = trunc i64 %39 to i32
  %41 = load ptr, ptr %4, align 8, !tbaa !9
  %42 = getelementptr inbounds nuw %struct.df_history_t, ptr %41, i32 0, i32 3
  %43 = load ptr, ptr %42, align 8, !tbaa !22
  call void @_Z8dd_bcastPK12gmx_domdec_tiPv(ptr noundef %36, i32 noundef %40, ptr noundef %43)
  %44 = load ptr, ptr %3, align 8, !tbaa !4
  %45 = load i32, ptr %5, align 4, !tbaa !20
  %46 = sext i32 %45 to i64
  %47 = mul i64 4, %46
  %48 = trunc i64 %47 to i32
  %49 = load ptr, ptr %4, align 8, !tbaa !9
  %50 = getelementptr inbounds nuw %struct.df_history_t, ptr %49, i32 0, i32 4
  %51 = load ptr, ptr %50, align 8, !tbaa !23
  call void @_Z8dd_bcastPK12gmx_domdec_tiPv(ptr noundef %44, i32 noundef %48, ptr noundef %51)
  %52 = load ptr, ptr %3, align 8, !tbaa !4
  %53 = load i32, ptr %5, align 4, !tbaa !20
  %54 = sext i32 %53 to i64
  %55 = mul i64 4, %54
  %56 = trunc i64 %55 to i32
  %57 = load ptr, ptr %4, align 8, !tbaa !9
  %58 = getelementptr inbounds nuw %struct.df_history_t, ptr %57, i32 0, i32 6
  %59 = load ptr, ptr %58, align 8, !tbaa !24
  call void @_Z8dd_bcastPK12gmx_domdec_tiPv(ptr noundef %52, i32 noundef %56, ptr noundef %59)
  %60 = load ptr, ptr %3, align 8, !tbaa !4
  %61 = load i32, ptr %5, align 4, !tbaa !20
  %62 = sext i32 %61 to i64
  %63 = mul i64 4, %62
  %64 = trunc i64 %63 to i32
  %65 = load ptr, ptr %4, align 8, !tbaa !9
  %66 = getelementptr inbounds nuw %struct.df_history_t, ptr %65, i32 0, i32 7
  %67 = load ptr, ptr %66, align 8, !tbaa !25
  call void @_Z8dd_bcastPK12gmx_domdec_tiPv(ptr noundef %60, i32 noundef %64, ptr noundef %67)
  %68 = load ptr, ptr %3, align 8, !tbaa !4
  %69 = load i32, ptr %5, align 4, !tbaa !20
  %70 = sext i32 %69 to i64
  %71 = mul i64 4, %70
  %72 = trunc i64 %71 to i32
  %73 = load ptr, ptr %4, align 8, !tbaa !9
  %74 = getelementptr inbounds nuw %struct.df_history_t, ptr %73, i32 0, i32 8
  %75 = load ptr, ptr %74, align 8, !tbaa !26
  call void @_Z8dd_bcastPK12gmx_domdec_tiPv(ptr noundef %68, i32 noundef %72, ptr noundef %75)
  %76 = load ptr, ptr %3, align 8, !tbaa !4
  %77 = load i32, ptr %5, align 4, !tbaa !20
  %78 = sext i32 %77 to i64
  %79 = mul i64 4, %78
  %80 = trunc i64 %79 to i32
  %81 = load ptr, ptr %4, align 8, !tbaa !9
  %82 = getelementptr inbounds nuw %struct.df_history_t, ptr %81, i32 0, i32 9
  %83 = load ptr, ptr %82, align 8, !tbaa !27
  call void @_Z8dd_bcastPK12gmx_domdec_tiPv(ptr noundef %76, i32 noundef %80, ptr noundef %83)
  call void @llvm.lifetime.start.p0(i64 4, ptr %6) #17
  store i32 0, ptr %6, align 4, !tbaa !20
  br label %84

84:                                               ; preds = %162, %24
  %85 = load i32, ptr %6, align 4, !tbaa !20
  %86 = load i32, ptr %5, align 4, !tbaa !20
  %87 = icmp slt i32 %85, %86
  br i1 %87, label %89, label %88

88:                                               ; preds = %84
  call void @llvm.lifetime.end.p0(i64 4, ptr %6) #17
  br label %165

89:                                               ; preds = %84
  %90 = load ptr, ptr %3, align 8, !tbaa !4
  %91 = load i32, ptr %5, align 4, !tbaa !20
  %92 = sext i32 %91 to i64
  %93 = mul i64 4, %92
  %94 = trunc i64 %93 to i32
  %95 = load ptr, ptr %4, align 8, !tbaa !9
  %96 = getelementptr inbounds nuw %struct.df_history_t, ptr %95, i32 0, i32 10
  %97 = load ptr, ptr %96, align 8, !tbaa !28
  %98 = load i32, ptr %6, align 4, !tbaa !20
  %99 = sext i32 %98 to i64
  %100 = getelementptr inbounds ptr, ptr %97, i64 %99
  %101 = load ptr, ptr %100, align 8, !tbaa !29
  call void @_Z8dd_bcastPK12gmx_domdec_tiPv(ptr noundef %90, i32 noundef %94, ptr noundef %101)
  %102 = load ptr, ptr %3, align 8, !tbaa !4
  %103 = load i32, ptr %5, align 4, !tbaa !20
  %104 = sext i32 %103 to i64
  %105 = mul i64 4, %104
  %106 = trunc i64 %105 to i32
  %107 = load ptr, ptr %4, align 8, !tbaa !9
  %108 = getelementptr inbounds nuw %struct.df_history_t, ptr %107, i32 0, i32 11
  %109 = load ptr, ptr %108, align 8, !tbaa !30
  %110 = load i32, ptr %6, align 4, !tbaa !20
  %111 = sext i32 %110 to i64
  %112 = getelementptr inbounds ptr, ptr %109, i64 %111
  %113 = load ptr, ptr %112, align 8, !tbaa !29
  call void @_Z8dd_bcastPK12gmx_domdec_tiPv(ptr noundef %102, i32 noundef %106, ptr noundef %113)
  %114 = load ptr, ptr %3, align 8, !tbaa !4
  %115 = load i32, ptr %5, align 4, !tbaa !20
  %116 = sext i32 %115 to i64
  %117 = mul i64 4, %116
  %118 = trunc i64 %117 to i32
  %119 = load ptr, ptr %4, align 8, !tbaa !9
  %120 = getelementptr inbounds nuw %struct.df_history_t, ptr %119, i32 0, i32 12
  %121 = load ptr, ptr %120, align 8, !tbaa !31
  %122 = load i32, ptr %6, align 4, !tbaa !20
  %123 = sext i32 %122 to i64
  %124 = getelementptr inbounds ptr, ptr %121, i64 %123
  %125 = load ptr, ptr %124, align 8, !tbaa !29
  call void @_Z8dd_bcastPK12gmx_domdec_tiPv(ptr noundef %114, i32 noundef %118, ptr noundef %125)
  %126 = load ptr, ptr %3, align 8, !tbaa !4
  %127 = load i32, ptr %5, align 4, !tbaa !20
  %128 = sext i32 %127 to i64
  %129 = mul i64 4, %128
  %130 = trunc i64 %129 to i32
  %131 = load ptr, ptr %4, align 8, !tbaa !9
  %132 = getelementptr inbounds nuw %struct.df_history_t, ptr %131, i32 0, i32 13
  %133 = load ptr, ptr %132, align 8, !tbaa !32
  %134 = load i32, ptr %6, align 4, !tbaa !20
  %135 = sext i32 %134 to i64
  %136 = getelementptr inbounds ptr, ptr %133, i64 %135
  %137 = load ptr, ptr %136, align 8, !tbaa !29
  call void @_Z8dd_bcastPK12gmx_domdec_tiPv(ptr noundef %126, i32 noundef %130, ptr noundef %137)
  %138 = load ptr, ptr %3, align 8, !tbaa !4
  %139 = load i32, ptr %5, align 4, !tbaa !20
  %140 = sext i32 %139 to i64
  %141 = mul i64 4, %140
  %142 = trunc i64 %141 to i32
  %143 = load ptr, ptr %4, align 8, !tbaa !9
  %144 = getelementptr inbounds nuw %struct.df_history_t, ptr %143, i32 0, i32 14
  %145 = load ptr, ptr %144, align 8, !tbaa !33
  %146 = load i32, ptr %6, align 4, !tbaa !20
  %147 = sext i32 %146 to i64
  %148 = getelementptr inbounds ptr, ptr %145, i64 %147
  %149 = load ptr, ptr %148, align 8, !tbaa !29
  call void @_Z8dd_bcastPK12gmx_domdec_tiPv(ptr noundef %138, i32 noundef %142, ptr noundef %149)
  %150 = load ptr, ptr %3, align 8, !tbaa !4
  %151 = load i32, ptr %5, align 4, !tbaa !20
  %152 = sext i32 %151 to i64
  %153 = mul i64 4, %152
  %154 = trunc i64 %153 to i32
  %155 = load ptr, ptr %4, align 8, !tbaa !9
  %156 = getelementptr inbounds nuw %struct.df_history_t, ptr %155, i32 0, i32 15
  %157 = load ptr, ptr %156, align 8, !tbaa !34
  %158 = load i32, ptr %6, align 4, !tbaa !20
  %159 = sext i32 %158 to i64
  %160 = getelementptr inbounds ptr, ptr %157, i64 %159
  %161 = load ptr, ptr %160, align 8, !tbaa !29
  call void @_Z8dd_bcastPK12gmx_domdec_tiPv(ptr noundef %150, i32 noundef %154, ptr noundef %161)
  br label %162

162:                                              ; preds = %89
  %163 = load i32, ptr %6, align 4, !tbaa !20
  %164 = add nsw i32 %163, 1
  store i32 %164, ptr %6, align 4, !tbaa !20
  br label %84, !llvm.loop !35

165:                                              ; preds = %88
  call void @llvm.lifetime.end.p0(i64 4, ptr %5) #17
  br label %166

166:                                              ; preds = %9, %165, %10
  ret void
}