; Function Attrs: mustprogress uwtable
define void @_Z20dd_distribute_dfhistP12gmx_domdec_tP12df_history_t(ptr noundef %0, ptr noundef %1) local_unnamed_addr #0 {
  %3 = icmp eq ptr %1, null
  br i1 %3, label %.loopexit, label %4

4:                                                ; preds = %2
  %5 = getelementptr inbounds nuw i8, ptr %1, i64 4
  tail call void @_Z8dd_bcastPK12gmx_domdec_tiPv(ptr noundef %0, i32 noundef 4, ptr noundef nonnull %5)
  tail call void @_Z8dd_bcastPK12gmx_domdec_tiPv(ptr noundef %0, i32 noundef 4, ptr noundef nonnull %1)
  %6 = getelementptr inbounds nuw i8, ptr %1, i64 32
  tail call void @_Z8dd_bcastPK12gmx_domdec_tiPv(ptr noundef %0, i32 noundef 4, ptr noundef nonnull %6)
  %7 = load i32, ptr %1, align 8, !tbaa !4
  %8 = icmp sgt i32 %7, 0
  br i1 %8, label %9, label %.loopexit

9:                                                ; preds = %4
  %10 = shl i32 %7, 2
  %11 = getelementptr inbounds nuw i8, ptr %1, i64 8
  %12 = load ptr, ptr %11, align 8, !tbaa !16
  tail call void @_Z8dd_bcastPK12gmx_domdec_tiPv(ptr noundef %0, i32 noundef %10, ptr noundef %12)
  %13 = getelementptr inbounds nuw i8, ptr %1, i64 16
  %14 = load ptr, ptr %13, align 8, !tbaa !17
  tail call void @_Z8dd_bcastPK12gmx_domdec_tiPv(ptr noundef %0, i32 noundef %10, ptr noundef %14)
  %15 = getelementptr inbounds nuw i8, ptr %1, i64 24
  %16 = load ptr, ptr %15, align 8, !tbaa !18
  tail call void @_Z8dd_bcastPK12gmx_domdec_tiPv(ptr noundef %0, i32 noundef %10, ptr noundef %16)
  %17 = getelementptr inbounds nuw i8, ptr %1, i64 40
  %18 = load ptr, ptr %17, align 8, !tbaa !19
  tail call void @_Z8dd_bcastPK12gmx_domdec_tiPv(ptr noundef %0, i32 noundef %10, ptr noundef %18)
  %19 = getelementptr inbounds nuw i8, ptr %1, i64 48
  %20 = load ptr, ptr %19, align 8, !tbaa !20
  tail call void @_Z8dd_bcastPK12gmx_domdec_tiPv(ptr noundef %0, i32 noundef %10, ptr noundef %20)
  %21 = getelementptr inbounds nuw i8, ptr %1, i64 56
  %22 = load ptr, ptr %21, align 8, !tbaa !21
  tail call void @_Z8dd_bcastPK12gmx_domdec_tiPv(ptr noundef %0, i32 noundef %10, ptr noundef %22)
  %23 = getelementptr inbounds nuw i8, ptr %1, i64 64
  %24 = load ptr, ptr %23, align 8, !tbaa !22
  tail call void @_Z8dd_bcastPK12gmx_domdec_tiPv(ptr noundef %0, i32 noundef %10, ptr noundef %24)
  %25 = getelementptr inbounds nuw i8, ptr %1, i64 72
  %26 = getelementptr inbounds nuw i8, ptr %1, i64 80
  %27 = getelementptr inbounds nuw i8, ptr %1, i64 88
  %28 = getelementptr inbounds nuw i8, ptr %1, i64 96
  %29 = getelementptr inbounds nuw i8, ptr %1, i64 104
  %30 = getelementptr inbounds nuw i8, ptr %1, i64 112
  %wide.trip.count = zext nneg i32 %7 to i64
  br label %31

31:                                               ; preds = %9, %31
  %indvars.iv = phi i64 [ 0, %9 ], [ %indvars.iv.next, %31 ]
  %32 = load ptr, ptr %25, align 8, !tbaa !23
  %33 = getelementptr inbounds nuw ptr, ptr %32, i64 %indvars.iv
  %34 = load ptr, ptr %33, align 8, !tbaa !24
  tail call void @_Z8dd_bcastPK12gmx_domdec_tiPv(ptr noundef %0, i32 noundef %10, ptr noundef %34)
  %35 = load ptr, ptr %26, align 8, !tbaa !25
  %36 = getelementptr inbounds nuw ptr, ptr %35, i64 %indvars.iv
  %37 = load ptr, ptr %36, align 8, !tbaa !24
  tail call void @_Z8dd_bcastPK12gmx_domdec_tiPv(ptr noundef %0, i32 noundef %10, ptr noundef %37)
  %38 = load ptr, ptr %27, align 8, !tbaa !26
  %39 = getelementptr inbounds nuw ptr, ptr %38, i64 %indvars.iv
  %40 = load ptr, ptr %39, align 8, !tbaa !24
  tail call void @_Z8dd_bcastPK12gmx_domdec_tiPv(ptr noundef %0, i32 noundef %10, ptr noundef %40)
  %41 = load ptr, ptr %28, align 8, !tbaa !27
  %42 = getelementptr inbounds nuw ptr, ptr %41, i64 %indvars.iv
  %43 = load ptr, ptr %42, align 8, !tbaa !24
  tail call void @_Z8dd_bcastPK12gmx_domdec_tiPv(ptr noundef %0, i32 noundef %10, ptr noundef %43)
  %44 = load ptr, ptr %29, align 8, !tbaa !28
  %45 = getelementptr inbounds nuw ptr, ptr %44, i64 %indvars.iv
  %46 = load ptr, ptr %45, align 8, !tbaa !24
  tail call void @_Z8dd_bcastPK12gmx_domdec_tiPv(ptr noundef %0, i32 noundef %10, ptr noundef %46)
  %47 = load ptr, ptr %30, align 8, !tbaa !29
  %48 = getelementptr inbounds nuw ptr, ptr %47, i64 %indvars.iv
  %49 = load ptr, ptr %48, align 8, !tbaa !24
  tail call void @_Z8dd_bcastPK12gmx_domdec_tiPv(ptr noundef %0, i32 noundef %10, ptr noundef %49)
  %indvars.iv.next = add nuw nsw i64 %indvars.iv, 1
  %exitcond.not = icmp eq i64 %indvars.iv.next, %wide.trip.count
  br i1 %exitcond.not, label %.loopexit, label %31, !llvm.loop !30

.loopexit:                                        ; preds = %31, %2, %4
  ret void
}